(dp1
S'acc'
p2
cnumpy.core.multiarray
scalar
p3
(cnumpy
dtype
p4
(S'f8'
I0
I1
tRp5
(I3
S'<'
NNNI-1
I-1
I0
tbS"e\xaa`TR'\xee?"
tRp6
sS'loss'
p7
g3
(g5
S'\xc4\xb1.a\x17\xd6\x8f?'
tRp8
sS'val_acc'
p9
g3
(g5
S'\xd2o_\x07\xce\x19\xeb?'
tRp10
sS'val_loss'
p11
g3
(g5
S'\xa4p=Z\x12\xad\xa5?'
tRp12
s.