(dp1
S'acc'
p2
cnumpy.core.multiarray
scalar
p3
(cnumpy
dtype
p4
(S'f8'
I0
I1
tRp5
(I3
S'<'
NNNI-1
I-1
I0
tbS'e\xaa`TR\xa7\xee?'
tRp6
sS'loss'
p7
g3
(g5
S'HP\xfc\x11s\xcc\x84?'
tRp8
sS'val_acc'
p9
g3
(g5
S'\xadi\xdeq\x8a\x8e\xea?'
tRp10
sS'val_loss'
p11
g3
(g5
S'\\ A\xd1@\xd1\xa0?'
tRp12
s.