(dp1
S'acc'
p2
cnumpy.core.multiarray
scalar
p3
(cnumpy
dtype
p4
(S'f8'
I0
I1
tRp5
(I3
S'<'
NNNI-1
I-1
I0
tbS'_)\xcb\x10\xc7:\xed?'
tRp6
sS'loss'
p7
g3
(g5
S'B\xcff\xd9\xeaU\x8b?'
tRp8
sS'val_acc'
p9
g3
(g5
S'HP\xfc\x18s\xd7\xea?'
tRp10
sS'val_loss'
p11
g3
(g5
S'\xaa`TB\x03]\xa3?'
tRp12
s.