(dp1
S'acc'
p2
cnumpy.core.multiarray
scalar
p3
(cnumpy
dtype
p4
(S'f8'
I0
I1
tRp5
(I3
S'<'
NNNI-1
I-1
I0
tbS'\t\x1b\x9e^)\xcb\xee?'
tRp6
sS'loss'
p7
g3
(g5
S'm\xc5\xfe\x92\x13)\x8a?'
tRp8
sS'val_acc'
p9
g3
(g5
S'f\x88c]\xdcF\xeb?'
tRp10
sS'val_loss'
p11
g3
(g5
S'\x19\x04V\x06\xc6\xf8\xb0?'
tRp12
s.