(dp1
S'acc'
p2
cnumpy.core.multiarray
scalar
p3
(cnumpy
dtype
p4
(S'f8'
I0
I1
tRp5
(I3
S'<'
NNNI-1
I-1
I0
tbS')\\\x8f\xc2\xf5\xa8\xee?'
tRp6
sS'loss'
p7
g3
(g5
S'\xa2\xb47\ta&\x86?'
tRp8
sS'val_acc'
p9
g3
(g5
S'*\xa9\x13\xd0D\xd8\xea?'
tRp10
sS'val_loss'
p11
g3
(g5
S'\x8f\xc2\xf50g\xb6\xa3?'
tRp12
s.