(dp1
S'acc'
p2
cnumpy.core.multiarray
scalar
p3
(cnumpy
dtype
p4
(S'f8'
I0
I1
tRp5
(I3
S'<'
NNNI-1
I-1
I0
tbS']\xfeC\xfa\xed\xeb\xee?'
tRp6
sS'loss'
p7
g3
(g5
S'\x02+\x07\xf2n\xe9\x86?'
tRp8
sS'val_acc'
p9
g3
(g5
S'\x8fSt$\x97\xff\xea?'
tRp10
sS'val_loss'
p11
g3
(g5
S"'\xa0\x890w\x8e\xa9?"
tRp12
s.